target datalayout = "e-m:e-p270:32:32-p271:32:32-p272:64:64-i64:64-i128:128-f80:128-n8:16:32:64-S128"
target triple = "x86_64-pc-linux-gnu"

@.str.65 = private unnamed_addr constant [2 x i8] c"r\00", align 1

; Function Attrs: mustprogress uwtable
define void @_Z17gmx_pdb_read_confRKNSt10filesystem7__cxx114pathEP8t_symtabPPcP7t_atomsPA3_fP7PbcTypeSB_(ptr noundef nonnull align 8 dereferenceable(40) %0, ptr noundef %1, ptr noundef %2, ptr noundef %3, ptr noundef %4, ptr noundef %5, ptr noundef %6) #0 {
  %8 = alloca ptr, align 8
  %9 = alloca ptr, align 8
  %10 = alloca ptr, align 8
  %11 = alloca ptr, align 8
  %12 = alloca ptr, align 8
  %13 = alloca ptr, align 8
  %14 = alloca ptr, align 8
  %15 = alloca ptr, align 8
  %16 = alloca [4096 x i8], align 16
  store ptr %0, ptr %8, align 8, !tbaa !103
  store ptr %1, ptr %9, align 8, !tbaa !140
  store ptr %2, ptr %10, align 8, !tbaa !57
  store ptr %3, ptr %11, align 8, !tbaa !23
  store ptr %4, ptr %12, align 8, !tbaa !17
  store ptr %5, ptr %13, align 8, !tbaa !93
  store ptr %6, ptr %14, align 8, !tbaa !17
  call void @llvm.lifetime.start.p0(i64 8, ptr %15) #15
  %17 = load ptr, ptr %8, align 8, !tbaa !103
  %18 = call noundef ptr @_Z13gmx_fio_fopenRKNSt10filesystem7__cxx114pathEPKc(ptr noundef nonnull align 8 dereferenceable(40) %17, ptr noundef @.str.65)
  store ptr %18, ptr %15, align 8, !tbaa !13
  call void @llvm.lifetime.start.p0(i64 4096, ptr %16) #15
  %19 = load ptr, ptr %15, align 8, !tbaa !13
  %20 = getelementptr inbounds [4096 x i8], ptr %16, i64 0, i64 0
  %21 = load ptr, ptr %11, align 8, !tbaa !23
  %22 = load ptr, ptr %9, align 8, !tbaa !140
  %23 = load ptr, ptr %12, align 8, !tbaa !17
  %24 = load ptr, ptr %13, align 8, !tbaa !93
  %25 = load ptr, ptr %14, align 8, !tbaa !17
  %26 = call noundef i32 @_Z12read_pdbfileP8_IO_FILEPcPiP7t_atomsP8t_symtabPA3_fP7PbcTypeS8_P12gmx_conect_t(ptr noundef %19, ptr noundef %20, ptr noundef null, ptr noundef %21, ptr noundef %22, ptr noundef %23, ptr noundef %24, ptr noundef %25, ptr noundef null)
  %27 = load ptr, ptr %10, align 8, !tbaa !57
  %28 = icmp ne ptr %27, null
  br i1 %28, label %29, label %33

29:                                               ; preds = %7
  %30 = getelementptr inbounds [4096 x i8], ptr %16, i64 0, i64 0
  %31 = call noundef ptr @_Z10gmx_strdupPKc(ptr noundef %30)
  %32 = load ptr, ptr %10, align 8, !tbaa !57
  store ptr %31, ptr %32, align 8, !tbaa !8
  br label %33

33:                                               ; preds = %29, %7
  %34 = load ptr, ptr %15, align 8, !tbaa !13
  %35 = call noundef i32 @_Z14gmx_fio_fcloseP8_IO_FILE(ptr noundef %34)
  call void @llvm.lifetime.end.p0(i64 4096, ptr %16) #15
  call void @llvm.lifetime.end.p0(i64 8, ptr %15) #15
  ret void
}