; Function Attrs: mustprogress uwtable
define void @_Z17gmx_pdb_read_confRKNSt10filesystem7__cxx114pathEP8t_symtabPPcP7t_atomsPA3_fP7PbcTypeSB_(ptr noundef nonnull align 8 dereferenceable(40) %0, ptr noundef %1, ptr noundef writeonly %2, ptr noundef initializes((64, 69)) %3, ptr noundef writeonly captures(none) %4, ptr noundef %5, ptr noundef %6) local_unnamed_addr #1 {
  %8 = alloca [4096 x i8], align 16
  %9 = tail call noundef ptr @_Z13gmx_fio_fopenRKNSt10filesystem7__cxx114pathEPKc(ptr noundef nonnull align 8 dereferenceable(40) %0, ptr noundef nonnull @.str.65)
  call void @llvm.lifetime.start.p0(i64 4096, ptr nonnull %8) #28
  %10 = call noundef i32 @_Z12read_pdbfileP8_IO_FILEPcPiP7t_atomsP8t_symtabPA3_fP7PbcTypeS8_P12gmx_conect_t(ptr noundef %9, ptr noundef nonnull %8, ptr noundef null, ptr noundef %3, ptr noundef %1, ptr noundef %4, ptr noundef %5, ptr noundef %6, ptr noundef null)
  %.not = icmp eq ptr %2, null
  br i1 %.not, label %13, label %11

11:                                               ; preds = %7
  %12 = call noundef ptr @_Z10gmx_strdupPKc(ptr noundef nonnull %8)
  store ptr %12, ptr %2, align 8, !tbaa !4
  br label %13

13:                                               ; preds = %11, %7
  %14 = call noundef i32 @_Z14gmx_fio_fcloseP8_IO_FILE(ptr noundef %9)
  call void @llvm.lifetime.end.p0(i64 4096, ptr nonnull %8) #28
  ret void
}